target datalayout = "e-m:e-p270:32:32-p271:32:32-p272:64:64-i64:64-i128:128-f80:128-n8:16:32:64-S128"
target triple = "x86_64-pc-linux-gnu"

%struct._zval_struct = type { %union._zend_value, %union.anon, %union.anon.2 }
%union._zend_value = type { i64 }
%union.anon = type { i32 }
%union.anon.2 = type { i32 }
%struct._xmlDoc = type { ptr, i32, ptr, ptr, ptr, ptr, ptr, ptr, ptr, i32, i32, ptr, ptr, ptr, ptr, ptr, ptr, ptr, ptr, i32, ptr, ptr, i32, i32 }

; Function Attrs: nounwind uwtable
define hidden i32 @dom_document_standalone_write(ptr noundef %0, ptr noundef %1) #0 {
  %3 = alloca ptr, align 8
  %4 = alloca ptr, align 8
  %5 = alloca i32, align 4
  %6 = alloca ptr, align 8
  %7 = alloca ptr, align 8
  %8 = alloca ptr, align 8
  %9 = alloca i64, align 8
  store ptr %0, ptr %6, align 8
  store ptr %1, ptr %7, align 8
  %10 = load ptr, ptr %6, align 8
  %11 = call ptr @dom_object_get_node(ptr noundef %10)
  store ptr %11, ptr %8, align 8
  %12 = load ptr, ptr %8, align 8
  %13 = icmp eq ptr %12, null
  br i1 %13, label %14, label %15

14:                                               ; preds = %2
  call void @php_dom_throw_error(i32 noundef 11, i32 noundef 1)
  store i32 -1, ptr %5, align 4
  br label %42

15:                                               ; preds = %2
  %16 = load ptr, ptr %7, align 8
  store ptr %16, ptr %4, align 8
  %17 = load ptr, ptr %4, align 8
  store ptr %17, ptr %3, align 8
  %18 = load ptr, ptr %3, align 8
  %19 = getelementptr inbounds %struct._zval_struct, ptr %18, i32 0, i32 1
  %20 = load i8, ptr %19, align 8
  %21 = zext i8 %20 to i32
  %22 = icmp eq i32 %21, 4
  br i1 %22, label %23, label %26

23:                                               ; preds = %15
  %24 = load ptr, ptr %4, align 8
  %25 = load i64, ptr %24, align 8
  br label %29

26:                                               ; preds = %15
  %27 = load ptr, ptr %4, align 8
  %28 = call i64 @zval_get_long_func(ptr noundef %27, i1 noundef zeroext false) #10
  br label %29

29:                                               ; preds = %26, %23
  %30 = phi i64 [ %25, %23 ], [ %28, %26 ]
  store i64 %30, ptr %9, align 8
  %31 = load i64, ptr %9, align 8
  %32 = icmp ne i64 %31, 0
  br i1 %32, label %33, label %37

33:                                               ; preds = %29
  %34 = load i64, ptr %9, align 8
  %35 = icmp slt i64 %34, 0
  %36 = select i1 %35, i32 -1, i32 1
  br label %38

37:                                               ; preds = %29
  br label %38

38:                                               ; preds = %37, %33
  %39 = phi i32 [ %36, %33 ], [ 0, %37 ]
  %40 = load ptr, ptr %8, align 8
  %41 = getelementptr inbounds %struct._xmlDoc, ptr %40, i32 0, i32 10
  store i32 %39, ptr %41, align 4
  store i32 0, ptr %5, align 4
  br label %42

42:                                               ; preds = %38, %14
  %43 = load i32, ptr %5, align 4
  ret i32 %43
}