; Function Attrs: nounwind uwtable
define hidden noundef i32 @dom_document_standalone_write(ptr noundef %0, ptr noundef %1) local_unnamed_addr #0 {
  %3 = tail call ptr @dom_object_get_node(ptr noundef %0) #10
  %4 = icmp eq ptr %3, null
  br i1 %4, label %5, label %6

5:                                                ; preds = %2
  tail call void @php_dom_throw_error(i32 noundef 11, i32 noundef 1) #10
  br label %20

6:                                                ; preds = %2
  %7 = getelementptr inbounds i8, ptr %1, i64 8
  %8 = load i8, ptr %7, align 8
  %9 = icmp eq i8 %8, 4
  br i1 %9, label %10, label %12

10:                                               ; preds = %6
  %11 = load i64, ptr %1, align 8
  br label %14

12:                                               ; preds = %6
  %13 = tail call i64 @zval_get_long_func(ptr noundef nonnull %1, i1 noundef zeroext false) #10
  br label %14

14:                                               ; preds = %12, %10
  %15 = phi i64 [ %11, %10 ], [ %13, %12 ]
  %.not = icmp eq i64 %15, 0
  %16 = icmp slt i64 %15, 0
  %17 = select i1 %16, i32 -1, i32 1
  %18 = select i1 %.not, i32 0, i32 %17
  %19 = getelementptr inbounds i8, ptr %3, i64 76
  store i32 %18, ptr %19, align 4
  br label %20

20:                                               ; preds = %14, %5
  %.0 = phi i32 [ -1, %5 ], [ 0, %14 ]
  ret i32 %.0
}